; Function Attrs: mustprogress uwtable
define hidden noundef zeroext i1 @_ZN3sls9bv_plugin9set_valueEP4exprS2_(ptr noundef nonnull align 8 dereferenceable(1049) %0, ptr noundef nonnull %1, ptr noundef %2) unnamed_addr #3 align 2 personality ptr @__gxx_personality_v0 {
  %4 = alloca %class.rational, align 8
  %5 = getelementptr inbounds nuw i8, ptr %0, i64 32
  %6 = tail call noundef ptr @_ZNK4expr8get_sortEv(ptr noundef nonnull align 4 dereferenceable(16) %1)
  %7 = tail call noundef zeroext i1 @_ZNK14bv_recognizers10is_bv_sortEPK4sort(ptr noundef nonnull align 4 dereferenceable(4) %5, ptr noundef %6)
  br i1 %7, label %8, label %35

8:                                                ; preds = %3
  call void @llvm.lifetime.start.p0(i64 32, ptr nonnull %4) #12
  store i32 0, ptr %4, align 8, !tbaa !146
  %9 = getelementptr inbounds nuw i8, ptr %4, i64 4
  store i8 0, ptr %9, align 4
  %10 = getelementptr inbounds nuw i8, ptr %4, i64 8
  store ptr null, ptr %10, align 8, !tbaa !149
  %11 = getelementptr inbounds nuw i8, ptr %4, i64 16
  store i32 1, ptr %11, align 8, !tbaa !146
  %12 = getelementptr inbounds nuw i8, ptr %4, i64 20
  store i8 0, ptr %12, align 4
  %13 = getelementptr inbounds nuw i8, ptr %4, i64 24
  store ptr null, ptr %13, align 8, !tbaa !149
  %14 = invoke noundef zeroext i1 @_ZNK14bv_recognizers10is_numeralEPK4exprR8rational(ptr noundef nonnull align 4 dereferenceable(4) %5, ptr noundef %2, ptr noundef nonnull align 8 dereferenceable(32) %4)
          to label %15 unwind label %18

15:                                               ; preds = %8
  br i1 %14, label %20, label %16

16:                                               ; preds = %15
  invoke void @_Z26notify_assertion_violationPKciS0_(ptr noundef nonnull @.str.3, i32 noundef 102, ptr noundef nonnull @.str.4)
          to label %17 unwind label %18

17:                                               ; preds = %16
  invoke void @_Z18invoke_exit_actionj(i32 noundef 114)
          to label %20 unwind label %18

18:                                               ; preds = %17, %16, %8
  %19 = landingpad { ptr, i32 }
          cleanup
  br label %34

20:                                               ; preds = %17, %15
  %21 = getelementptr inbounds nuw i8, ptr %0, i64 120
  %22 = invoke noundef nonnull align 8 dereferenceable(184) ptr @_ZNK3sls7bv_eval4evalEP3app(ptr noundef nonnull align 8 dereferenceable(865) %21, ptr noundef nonnull %1)
          to label %23 unwind label %32

23:                                               ; preds = %20
  %24 = getelementptr inbounds nuw i8, ptr %22, i64 160
  invoke void @_ZN3sls12bv_valuation9set_valueERNS_5bvectERK8rational(ptr noundef nonnull align 8 dereferenceable(184) %22, ptr noundef nonnull align 8 dereferenceable(20) %24, ptr noundef nonnull align 8 dereferenceable(32) %4)
          to label %25 unwind label %32

25:                                               ; preds = %23
  %26 = invoke noundef zeroext i1 @_ZN3sls12bv_valuation22commit_eval_check_tabuEv(ptr noundef nonnull align 8 dereferenceable(184) %22)
          to label %27 unwind label %32

27:                                               ; preds = %25
  %28 = load ptr, ptr @_ZN8rational13g_mpq_managerE, align 8, !tbaa !107
  invoke void @_ZN11mpz_managerILb1EE3delEPS0_R3mpz(ptr noundef %28, ptr noundef nonnull align 8 dereferenceable(32) %4)
          to label %.noexc.i unwind label %29

.noexc.i:                                         ; preds = %27
  invoke void @_ZN11mpz_managerILb1EE3delEPS0_R3mpz(ptr noundef %28, ptr noundef nonnull align 8 dereferenceable(16) %11)
          to label %_ZN8rationalD2Ev.exit unwind label %29

29:                                               ; preds = %.noexc.i, %27
  %30 = landingpad { ptr, i32 }
          catch ptr null
  %31 = extractvalue { ptr, i32 } %30, 0
  call void @__clang_call_terminate(ptr %31) #13
  unreachable

_ZN8rationalD2Ev.exit:                            ; preds = %.noexc.i
  call void @llvm.lifetime.end.p0(i64 32, ptr nonnull %4) #12
  br label %35

32:                                               ; preds = %25, %23, %20
  %33 = landingpad { ptr, i32 }
          cleanup
  br label %34

34:                                               ; preds = %32, %18
  %.pn = phi { ptr, i32 } [ %33, %32 ], [ %19, %18 ]
  call void @_ZN8rationalD2Ev(ptr noundef nonnull align 8 dereferenceable(32) %4) #12
  call void @llvm.lifetime.end.p0(i64 32, ptr nonnull %4) #12
  resume { ptr, i32 } %.pn

35:                                               ; preds = %3, %_ZN8rationalD2Ev.exit
  %.0 = phi i1 [ %26, %_ZN8rationalD2Ev.exit ], [ false, %3 ]
  ret i1 %.0
}